Certificate:
    Data:
        Version: 3 (0x2)
        Serial Number: 2 (0x2)
    Signature Algorithm: sha256WithRSAEncryption
        Issuer: C=FR, ST=Radius, L=Somewhere, O=Example Inc./emailAddress=admin@example.org, CN=Example Certificate Authority
        Validity
            Not Before: Nov  7 20:00:25 2016 GMT
            Not After : Jan  6 20:00:25 2017 GMT
        Subject: C=FR, ST=Radius, O=Example Inc., CN=user@example.org/emailAddress=user@example.org
        Subject Public Key Info:
            Public Key Algorithm: rsaEncryption
                Public-Key: (2048 bit)
                Modulus:
                    00:cf:a3:17:dc:f5:4d:77:cc:8c:5e:15:eb:dc:a5:
                    c0:34:81:e8:7b:1f:7f:db:f3:00:3d:88:e2:06:da:
                    34:3a:ca:e1:bc:b5:36:52:a9:97:39:ef:58:00:b9:
                    81:34:3d:73:38:22:2e:86:55:b1:68:f2:70:4e:bf:
                    72:fc:0c:e7:86:dd:2a:c1:de:56:fe:dc:15:06:ea:
                    49:c2:77:21:33:e1:0d:fa:cb:61:ca:7e:4a:8f:93:
                    35:97:f6:0e:e4:4c:7b:f8:65:fc:b1:ae:f3:3e:59:
                    cd:b8:1e:f9:4d:b7:7c:59:e3:e9:c4:c2:fe:d8:e0:
                    1e:1b:dc:14:64:43:2b:0c:fe:2c:79:0d:51:27:8b:
                    6c:df:28:f6:02:a6:76:f4:d6:ec:99:bc:3f:c5:4e:
                    a9:63:34:a8:6b:93:67:87:45:9d:bb:f2:86:ce:1d:
                    f8:5c:4f:20:a3:9a:ef:4c:1d:53:7b:5c:13:86:41:
                    c7:2a:f0:fd:8d:9c:f4:45:fe:43:09:9e:a7:cc:bd:
                    39:32:08:3d:1b:65:68:2f:92:f0:17:cb:06:f4:24:
                    5a:a2:df:c9:5d:7b:50:40:50:b6:8c:e7:f9:7f:70:
                    c2:9b:5a:fc:e9:b2:36:8d:a8:e5:4e:8d:60:c4:b8:
                    74:9e:20:49:91:1e:7e:96:d3:54:df:5d:81:29:66:
                    8d:89
                Exponent: 65537 (0x10001)
        X509v3 extensions:
            X509v3 Extended Key Usage: 
                TLS Web Client Authentication
            X509v3 CRL Distribution Points: 

                Full Name:
                  URI:http://www.example.com/example_ca.crl

    Signature Algorithm: sha256WithRSAEncryption
         09:14:ab:06:b5:cc:93:46:cd:88:67:a2:a4:4f:8f:bc:1d:0c:
         6e:9e:f4:86:11:22:53:20:3c:c1:75:31:33:33:9f:e0:67:73:
         36:d1:fc:8d:b3:ea:cc:1e:f8:13:e8:90:b0:64:bc:76:f4:39:
         d2:2d:36:c7:33:ee:d6:8a:c8:7e:76:21:18:10:a0:54:97:5f:
         cd:70:ba:e5:41:ee:d1:15:35:74:61:cd:4f:75:72:eb:64:fe:
         c6:d2:c5:43:cd:48:b5:6f:2b:37:dc:ec:bb:16:47:55:5e:6d:
         b9:05:b7:d8:59:3d:e4:06:52:95:a2:76:ee:4d:2e:9b:38:dd:
         e3:f3:5f:f6:83:f1:0b:45:9a:48:a5:21:1c:ee:3b:ca:63:d3:
         03:a7:8f:d3:07:45:64:2c:f0:27:07:1f:f7:9d:3c:80:17:84:
         fe:25:fb:fb:82:f4:ca:45:fb:14:60:92:12:a7:31:0d:49:3e:
         cc:d8:3e:af:14:dd:6e:d7:07:1f:03:09:d5:55:db:f5:45:16:
         a6:56:b7:75:d5:50:56:54:2a:64:c8:87:30:00:78:03:e8:7f:
         38:cb:28:c0:14:3e:44:29:98:ca:0b:12:45:e0:46:a7:10:7a:
         ce:71:cc:95:13:bd:44:e0:70:a9:a7:a1:ba:a8:9d:eb:2f:5e:
         83:b6:05:59
-----BEGIN CERTIFICATE-----
MIIDzzCCAregAwIBAgIBAjANBgkqhkiG9w0BAQsFADCBkzELMAkGA1UEBhMCRlIx
DzANBgNVBAgMBlJhZGl1czESMBAGA1UEBwwJU29tZXdoZXJlMRUwEwYDVQQKDAxF
eGFtcGxlIEluYy4xIDAeBgkqhkiG9w0BCQEWEWFkbWluQGV4YW1wbGUub3JnMSYw
JAYDVQQDDB1FeGFtcGxlIENlcnRpZmljYXRlIEF1dGhvcml0eTAeFw0xNjExMDcy
MDAwMjVaFw0xNzAxMDYyMDAwMjVaMHExCzAJBgNVBAYTAkZSMQ8wDQYDVQQIDAZS
YWRpdXMxFTATBgNVBAoMDEV4YW1wbGUgSW5jLjEZMBcGA1UEAwwQdXNlckBleGFt
cGxlLm9yZzEfMB0GCSqGSIb3DQEJARYQdXNlckBleGFtcGxlLm9yZzCCASIwDQYJ
KoZIhvcNAQEBBQADggEPADCCAQoCggEBAM+jF9z1TXfMjF4V69ylwDSB6Hsff9vz
AD2I4gbaNDrK4by1NlKplznvWAC5gTQ9czgiLoZVsWjycE6/cvwM54bdKsHeVv7c
FQbqScJ3ITPhDfrLYcp+So+TNZf2DuRMe/hl/LGu8z5Zzbge+U23fFnj6cTC/tjg
HhvcFGRDKwz+LHkNUSeLbN8o9gKmdvTW7Jm8P8VOqWM0qGuTZ4dFnbvyhs4d+FxP
IKOa70wdU3tcE4ZBxyrw/Y2c9EX+Qwmep8y9OTIIPRtlaC+S8BfLBvQkWqLfyV17
UEBQtozn+X9wwpta/OmyNo2o5U6NYMS4dJ4gSZEefpbTVN9dgSlmjYkCAwEAAaNP
ME0wEwYDVR0lBAwwCgYIKwYBBQUHAwIwNgYDVR0fBC8wLTAroCmgJ4YlaHR0cDov
L3d3dy5leGFtcGxlLmNvbS9leGFtcGxlX2NhLmNybDANBgkqhkiG9w0BAQsFAAOC
AQEACRSrBrXMk0bNiGeipE+PvB0Mbp70hhEiUyA8wXUxMzOf4GdzNtH8jbPqzB74
E+iQsGS8dvQ50i02xzPu1orIfnYhGBCgVJdfzXC65UHu0RU1dGHNT3Vy62T+xtLF
Q81ItW8rN9zsuxZHVV5tuQW32Fk95AZSlaJ27k0umzjd4/Nf9oPxC0WaSKUhHO47
ymPTA6eP0wdFZCzwJwcf9508gBeE/iX7+4L0ykX7FGCSEqcxDUk+zNg+rxTdbtcH
HwMJ1VXb9UUWpla3ddVQVlQqZMiHMAB4A+h/OMsowBQ+RCmYygsSReBGpxB6znHM
lRO9ROBwqaehuqid6y9eg7YFWQ==
-----END CERTIFICATE-----
